target datalayout = "e-m:e-p270:32:32-p271:32:32-p272:64:64-i64:64-i128:128-f80:128-n8:16:32:64-S128"
target triple = "x86_64-pc-linux-gnu"

%struct.Abc_Frame_t_ = type { ptr, ptr, ptr, ptr, ptr, ptr, ptr, ptr, ptr, ptr, i32, i32, i32, i32, i32, ptr, float, float, i32, i32, ptr, ptr, ptr, double, double, ptr, ptr, ptr, ptr, ptr, ptr, ptr, ptr, ptr, ptr, ptr, ptr, float, ptr, i32, ptr, ptr, ptr, ptr, ptr, i32, i32, i32, i32, i32, i32, ptr, ptr, ptr, ptr, ptr, ptr, i32, i32, ptr, ptr, ptr, ptr, ptr, ptr, ptr, ptr, ptr, ptr, ptr, ptr, ptr, ptr, ptr, ptr, ptr, ptr, ptr, ptr, ptr, ptr, ptr, ptr, ptr, ptr, ptr, ptr, ptr, ptr }
%struct.Wlc_Ntk_t_ = type { ptr, ptr, %struct.Vec_Int_t_, %struct.Vec_Int_t_, %struct.Vec_Int_t_, %struct.Vec_Int_t_, %struct.Vec_Int_t_, %struct.Vec_Int_t_, ptr, ptr, ptr, [60 x i32], [60 x i32], i32, i32, i32, i32, i32, ptr, i32, i32, ptr, ptr, ptr, ptr, ptr, %struct.Vec_Int_t_, %struct.Vec_Int_t_, i32, %struct.Vec_Int_t_, %struct.Vec_Int_t_, %struct.Vec_Int_t_, %struct.Vec_Int_t_, %struct.Vec_Int_t_, %struct.Vec_Int_t_ }
%struct.Vec_Int_t_ = type { i32, i32, ptr }

@globalUtilOptind = external global i32, align 4
@.str.41 = private unnamed_addr constant [4 x i8] c"yes\00", align 1
@.str.42 = private unnamed_addr constant [3 x i8] c"no\00", align 1
@.str.45 = private unnamed_addr constant [62 x i8] c"\09-v     : toggle printing verbose information [default = %s]\0A\00", align 1
@.str.46 = private unnamed_addr constant [35 x i8] c"\09-h     : print the command usage\0A\00", align 1
@.str.69 = private unnamed_addr constant [7 x i8] c"ORisvh\00", align 1
@.str.70 = private unnamed_addr constant [60 x i8] c"Command line switch \22-O\22 should be followed by an integer.\0A\00", align 1
@.str.71 = private unnamed_addr constant [60 x i8] c"Command line switch \22-R\22 should be followed by an integer.\0A\00", align 1
@.str.72 = private unnamed_addr constant [48 x i8] c"Abc_CommandCone(): There is no current design.\0A\00", align 1
@.str.73 = private unnamed_addr constant [73 x i8] c"Abc_CommandCone(): Illegal output index (%d) (should be 0 <= num < %d).\0A\00", align 1
@.str.74 = private unnamed_addr constant [50 x i8] c"Extracting output %d as a %s word-level network.\0A\00", align 1
@.str.75 = private unnamed_addr constant [11 x i8] c"sequential\00", align 1
@.str.76 = private unnamed_addr constant [14 x i8] c"combinational\00", align 1
@.str.77 = private unnamed_addr constant [33 x i8] c"usage: %%cone [-OR num] [-isvh]\0A\00", align 1
@.str.78 = private unnamed_addr constant [65 x i8] c"\09         extracts logic cone of one or more word-level outputs\0A\00", align 1
@.str.79 = private unnamed_addr constant [85 x i8] c"\09-O num : zero-based index of the first word-level output to extract [default = %d]\0A\00", align 1
@.str.80 = private unnamed_addr constant [72 x i8] c"\09-R num : total number of word-level outputs to extract [default = %d]\0A\00", align 1
@.str.81 = private unnamed_addr constant [78 x i8] c"\09-i     : toggle using support composed of all primary inputs [default = %s]\0A\00", align 1
@.str.82 = private unnamed_addr constant [72 x i8] c"\09-s     : toggle performing extracting sequential cones [default = %s]\0A\00", align 1

; Function Attrs: inlinehint nounwind uwtable
define internal void @Wlc_AbcFreeNtk(ptr noundef %0) #2 {
  %2 = alloca ptr, align 8
  store ptr %0, ptr %2, align 8, !tbaa !3
  %3 = load ptr, ptr %2, align 8, !tbaa !3
  %4 = getelementptr inbounds nuw %struct.Abc_Frame_t_, ptr %3, i32 0, i32 71
  %5 = load ptr, ptr %4, align 8, !tbaa !132
  %6 = icmp ne ptr %5, null
  br i1 %6, label %7, label %10

7:                                                ; preds = %1
  %8 = load ptr, ptr %2, align 8, !tbaa !3
  %9 = call ptr @Wlc_AbcGetNtk(ptr noundef %8)
  call void @Wlc_NtkFree(ptr noundef %9)
  br label %10

10:                                               ; preds = %7, %1
  ret void
}

; Function Attrs: inlinehint nounwind uwtable
define internal i32 @Vec_IntSize(ptr noundef %0) #2 {
  %2 = alloca ptr, align 8
  store ptr %0, ptr %2, align 8, !tbaa !111
  %3 = load ptr, ptr %2, align 8, !tbaa !111
  %4 = getelementptr inbounds nuw %struct.Vec_Int_t_, ptr %3, i32 0, i32 1
  %5 = load i32, ptr %4, align 4, !tbaa !135
  ret i32 %5
}

; Function Attrs: inlinehint nounwind uwtable
define internal void @Wlc_AbcUpdateNtk(ptr noundef %0, ptr noundef %1) #2 {
  %3 = alloca ptr, align 8
  %4 = alloca ptr, align 8
  store ptr %0, ptr %3, align 8, !tbaa !3
  store ptr %1, ptr %4, align 8, !tbaa !12
  %5 = load ptr, ptr %3, align 8, !tbaa !3
  call void @Wlc_AbcFreeNtk(ptr noundef %5)
  %6 = load ptr, ptr %4, align 8, !tbaa !12
  %7 = load ptr, ptr %3, align 8, !tbaa !3
  %8 = getelementptr inbounds nuw %struct.Abc_Frame_t_, ptr %7, i32 0, i32 71
  store ptr %6, ptr %8, align 8, !tbaa !132
  ret void
}

; Function Attrs: inlinehint nounwind uwtable
define internal ptr @Abc_UtilStrsav(ptr noundef %0) #2 {
  %2 = alloca ptr, align 8
  store ptr %0, ptr %2, align 8, !tbaa !14
  %3 = load ptr, ptr %2, align 8, !tbaa !14
  %4 = icmp ne ptr %3, null
  br i1 %4, label %5, label %13

5:                                                ; preds = %1
  %6 = load ptr, ptr %2, align 8, !tbaa !14
  %7 = call i64 @strlen(ptr noundef %6) #13
  %8 = add i64 %7, 1
  %9 = mul i64 1, %8
  %10 = call noalias ptr @malloc(i64 noundef %9) #14
  %11 = load ptr, ptr %2, align 8, !tbaa !14
  %12 = call ptr @strcpy(ptr noundef %10, ptr noundef %11) #12
  br label %14

13:                                               ; preds = %1
  br label %14

14:                                               ; preds = %13, %5
  %15 = phi ptr [ %12, %5 ], [ null, %13 ]
  ret ptr %15
}

; Function Attrs: inlinehint nounwind uwtable
define internal i32 @Wlc_NtkCoNum(ptr noundef %0) #2 {
  %2 = alloca ptr, align 8
  store ptr %0, ptr %2, align 8, !tbaa !12
  %3 = load ptr, ptr %2, align 8, !tbaa !12
  %4 = getelementptr inbounds nuw %struct.Wlc_Ntk_t_, ptr %3, i32 0, i32 5
  %5 = call i32 @Vec_IntSize(ptr noundef %4)
  ret i32 %5
}

; Function Attrs: inlinehint nounwind willreturn memory(read) uwtable
define available_externally i32 @atoi(ptr noundef nonnull %0) #8 {
  %2 = alloca ptr, align 8
  store ptr %0, ptr %2, align 8, !tbaa !14
  %3 = load ptr, ptr %2, align 8, !tbaa !14
  %4 = call i64 @strtol(ptr noundef %3, ptr noundef null, i32 noundef 10) #12
  %5 = trunc i64 %4 to i32
  ret i32 %5
}

; Function Attrs: inlinehint nounwind uwtable
define internal ptr @Wlc_AbcGetNtk(ptr noundef %0) #2 {
  %2 = alloca ptr, align 8
  store ptr %0, ptr %2, align 8, !tbaa !3
  %3 = load ptr, ptr %2, align 8, !tbaa !3
  %4 = getelementptr inbounds nuw %struct.Abc_Frame_t_, ptr %3, i32 0, i32 71
  %5 = load ptr, ptr %4, align 8, !tbaa !132
  ret ptr %5
}

; Function Attrs: nounwind uwtable
define internal i32 @Abc_CommandCone(ptr noundef %0, i32 noundef %1, ptr noundef %2) #0 {
  %4 = alloca i32, align 4
  %5 = alloca ptr, align 8
  %6 = alloca i32, align 4
  %7 = alloca ptr, align 8
  %8 = alloca ptr, align 8
  %9 = alloca i32, align 4
  %10 = alloca i32, align 4
  %11 = alloca i32, align 4
  %12 = alloca i32, align 4
  %13 = alloca i32, align 4
  %14 = alloca i32, align 4
  %15 = alloca ptr, align 8
  %16 = alloca i32, align 4
  store ptr %0, ptr %5, align 8, !tbaa !3
  store i32 %1, ptr %6, align 4, !tbaa !8
  store ptr %2, ptr %7, align 8, !tbaa !10
  call void @llvm.lifetime.start.p0(i64 8, ptr %8) #12
  %17 = load ptr, ptr %5, align 8, !tbaa !3
  %18 = call ptr @Wlc_AbcGetNtk(ptr noundef %17)
  store ptr %18, ptr %8, align 8, !tbaa !12
  call void @llvm.lifetime.start.p0(i64 4, ptr %9) #12
  call void @llvm.lifetime.start.p0(i64 4, ptr %10) #12
  store i32 -1, ptr %10, align 4, !tbaa !8
  call void @llvm.lifetime.start.p0(i64 4, ptr %11) #12
  store i32 1, ptr %11, align 4, !tbaa !8
  call void @llvm.lifetime.start.p0(i64 4, ptr %12) #12
  store i32 0, ptr %12, align 4, !tbaa !8
  call void @llvm.lifetime.start.p0(i64 4, ptr %13) #12
  store i32 0, ptr %13, align 4, !tbaa !8
  call void @llvm.lifetime.start.p0(i64 4, ptr %14) #12
  store i32 0, ptr %14, align 4, !tbaa !8
  call void @llvm.lifetime.start.p0(i64 8, ptr %15) #12
  call void (...) @Extra_UtilGetoptReset()
  br label %19

19:                                               ; preds = %73, %3
  %20 = load i32, ptr %6, align 4, !tbaa !8
  %21 = load ptr, ptr %7, align 8, !tbaa !10
  %22 = call i32 @Extra_UtilGetopt(i32 noundef %20, ptr noundef %21, ptr noundef @.str.69)
  store i32 %22, ptr %9, align 4, !tbaa !8
  %23 = icmp ne i32 %22, -1
  br i1 %23, label %24, label %74

24:                                               ; preds = %19
  %25 = load i32, ptr %9, align 4, !tbaa !8
  switch i32 %25, label %72 [
    i32 79, label %26
    i32 82, label %44
    i32 105, label %62
    i32 115, label %65
    i32 118, label %68
    i32 104, label %71
  ]

26:                                               ; preds = %24
  %27 = load i32, ptr @globalUtilOptind, align 4, !tbaa !8
  %28 = load i32, ptr %6, align 4, !tbaa !8
  %29 = icmp sge i32 %27, %28
  br i1 %29, label %30, label %31

30:                                               ; preds = %26
  call void (i32, ptr, ...) @Abc_Print(i32 noundef -1, ptr noundef @.str.70)
  br label %126

31:                                               ; preds = %26
  %32 = load ptr, ptr %7, align 8, !tbaa !10
  %33 = load i32, ptr @globalUtilOptind, align 4, !tbaa !8
  %34 = sext i32 %33 to i64
  %35 = getelementptr inbounds ptr, ptr %32, i64 %34
  %36 = load ptr, ptr %35, align 8, !tbaa !14
  %37 = call i32 @atoi(ptr noundef %36) #13
  store i32 %37, ptr %10, align 4, !tbaa !8
  %38 = load i32, ptr @globalUtilOptind, align 4, !tbaa !8
  %39 = add nsw i32 %38, 1
  store i32 %39, ptr @globalUtilOptind, align 4, !tbaa !8
  %40 = load i32, ptr %10, align 4, !tbaa !8
  %41 = icmp slt i32 %40, 0
  br i1 %41, label %42, label %43

42:                                               ; preds = %31
  br label %126

43:                                               ; preds = %31
  br label %73

44:                                               ; preds = %24
  %45 = load i32, ptr @globalUtilOptind, align 4, !tbaa !8
  %46 = load i32, ptr %6, align 4, !tbaa !8
  %47 = icmp sge i32 %45, %46
  br i1 %47, label %48, label %49

48:                                               ; preds = %44
  call void (i32, ptr, ...) @Abc_Print(i32 noundef -1, ptr noundef @.str.71)
  br label %126

49:                                               ; preds = %44
  %50 = load ptr, ptr %7, align 8, !tbaa !10
  %51 = load i32, ptr @globalUtilOptind, align 4, !tbaa !8
  %52 = sext i32 %51 to i64
  %53 = getelementptr inbounds ptr, ptr %50, i64 %52
  %54 = load ptr, ptr %53, align 8, !tbaa !14
  %55 = call i32 @atoi(ptr noundef %54) #13
  store i32 %55, ptr %11, align 4, !tbaa !8
  %56 = load i32, ptr @globalUtilOptind, align 4, !tbaa !8
  %57 = add nsw i32 %56, 1
  store i32 %57, ptr @globalUtilOptind, align 4, !tbaa !8
  %58 = load i32, ptr %11, align 4, !tbaa !8
  %59 = icmp slt i32 %58, 0
  br i1 %59, label %60, label %61

60:                                               ; preds = %49
  br label %126

61:                                               ; preds = %49
  br label %73

62:                                               ; preds = %24
  %63 = load i32, ptr %12, align 4, !tbaa !8
  %64 = xor i32 %63, 1
  store i32 %64, ptr %12, align 4, !tbaa !8
  br label %73

65:                                               ; preds = %24
  %66 = load i32, ptr %13, align 4, !tbaa !8
  %67 = xor i32 %66, 1
  store i32 %67, ptr %13, align 4, !tbaa !8
  br label %73

68:                                               ; preds = %24
  %69 = load i32, ptr %14, align 4, !tbaa !8
  %70 = xor i32 %69, 1
  store i32 %70, ptr %14, align 4, !tbaa !8
  br label %73

71:                                               ; preds = %24
  br label %126

72:                                               ; preds = %24
  br label %126

73:                                               ; preds = %68, %65, %62, %61, %43
  br label %19, !llvm.loop !42

74:                                               ; preds = %19
  %75 = load ptr, ptr %8, align 8, !tbaa !12
  %76 = icmp eq ptr %75, null
  br i1 %76, label %77, label %78

77:                                               ; preds = %74
  call void (i32, ptr, ...) @Abc_Print(i32 noundef 1, ptr noundef @.str.72)
  store i32 0, ptr %4, align 4
  store i32 1, ptr %16, align 4
  br label %138

78:                                               ; preds = %74
  %79 = load i32, ptr %10, align 4, !tbaa !8
  %80 = icmp slt i32 %79, 0
  br i1 %80, label %86, label %81

81:                                               ; preds = %78
  %82 = load i32, ptr %10, align 4, !tbaa !8
  %83 = load ptr, ptr %8, align 8, !tbaa !12
  %84 = call i32 @Wlc_NtkCoNum(ptr noundef %83)
  %85 = icmp sge i32 %82, %84
  br i1 %85, label %86, label %90

86:                                               ; preds = %81, %78
  %87 = load i32, ptr %10, align 4, !tbaa !8
  %88 = load ptr, ptr %8, align 8, !tbaa !12
  %89 = call i32 @Wlc_NtkCoNum(ptr noundef %88)
  call void (i32, ptr, ...) @Abc_Print(i32 noundef 1, ptr noundef @.str.73, i32 noundef %87, i32 noundef %89)
  store i32 0, ptr %4, align 4
  store i32 1, ptr %16, align 4
  br label %138

90:                                               ; preds = %81
  %91 = load i32, ptr %10, align 4, !tbaa !8
  %92 = load i32, ptr %13, align 4, !tbaa !8
  %93 = icmp ne i32 %92, 0
  %94 = select i1 %93, ptr @.str.75, ptr @.str.76
  %95 = call i32 (ptr, ...) @printf(ptr noundef @.str.74, i32 noundef %91, ptr noundef %94)
  %96 = load ptr, ptr %8, align 8, !tbaa !12
  %97 = load i32, ptr %10, align 4, !tbaa !8
  %98 = load i32, ptr %13, align 4, !tbaa !8
  %99 = call ptr @Wlc_NtkNewName(ptr noundef %96, i32 noundef %97, i32 noundef %98)
  store ptr %99, ptr %15, align 8, !tbaa !14
  %100 = load ptr, ptr %8, align 8, !tbaa !12
  %101 = load i32, ptr %10, align 4, !tbaa !8
  %102 = load i32, ptr %11, align 4, !tbaa !8
  %103 = load i32, ptr %13, align 4, !tbaa !8
  %104 = load i32, ptr %12, align 4, !tbaa !8
  call void @Wlc_NtkMarkCone(ptr noundef %100, i32 noundef %101, i32 noundef %102, i32 noundef %103, i32 noundef %104)
  %105 = load ptr, ptr %8, align 8, !tbaa !12
  %106 = load i32, ptr %13, align 4, !tbaa !8
  %107 = call ptr @Wlc_NtkDupDfs(ptr noundef %105, i32 noundef 1, i32 noundef %106)
  store ptr %107, ptr %8, align 8, !tbaa !12
  %108 = load ptr, ptr %8, align 8, !tbaa !12
  %109 = getelementptr inbounds nuw %struct.Wlc_Ntk_t_, ptr %108, i32 0, i32 0
  %110 = load ptr, ptr %109, align 8, !tbaa !35
  %111 = icmp ne ptr %110, null
  br i1 %111, label %112, label %118

112:                                              ; preds = %90
  %113 = load ptr, ptr %8, align 8, !tbaa !12
  %114 = getelementptr inbounds nuw %struct.Wlc_Ntk_t_, ptr %113, i32 0, i32 0
  %115 = load ptr, ptr %114, align 8, !tbaa !35
  call void @free(ptr noundef %115) #12
  %116 = load ptr, ptr %8, align 8, !tbaa !12
  %117 = getelementptr inbounds nuw %struct.Wlc_Ntk_t_, ptr %116, i32 0, i32 0
  store ptr null, ptr %117, align 8, !tbaa !35
  br label %119

118:                                              ; preds = %90
  br label %119

119:                                              ; preds = %118, %112
  %120 = load ptr, ptr %15, align 8, !tbaa !14
  %121 = call ptr @Abc_UtilStrsav(ptr noundef %120)
  %122 = load ptr, ptr %8, align 8, !tbaa !12
  %123 = getelementptr inbounds nuw %struct.Wlc_Ntk_t_, ptr %122, i32 0, i32 0
  store ptr %121, ptr %123, align 8, !tbaa !35
  %124 = load ptr, ptr %5, align 8, !tbaa !3
  %125 = load ptr, ptr %8, align 8, !tbaa !12
  call void @Wlc_AbcUpdateNtk(ptr noundef %124, ptr noundef %125)
  store i32 0, ptr %4, align 4
  store i32 1, ptr %16, align 4
  br label %138

126:                                              ; preds = %72, %71, %60, %48, %42, %30
  call void (i32, ptr, ...) @Abc_Print(i32 noundef -2, ptr noundef @.str.77)
  call void (i32, ptr, ...) @Abc_Print(i32 noundef -2, ptr noundef @.str.78)
  %127 = load i32, ptr %10, align 4, !tbaa !8
  call void (i32, ptr, ...) @Abc_Print(i32 noundef -2, ptr noundef @.str.79, i32 noundef %127)
  %128 = load i32, ptr %11, align 4, !tbaa !8
  call void (i32, ptr, ...) @Abc_Print(i32 noundef -2, ptr noundef @.str.80, i32 noundef %128)
  %129 = load i32, ptr %12, align 4, !tbaa !8
  %130 = icmp ne i32 %129, 0
  %131 = select i1 %130, ptr @.str.41, ptr @.str.42
  call void (i32, ptr, ...) @Abc_Print(i32 noundef -2, ptr noundef @.str.81, ptr noundef %131)
  %132 = load i32, ptr %13, align 4, !tbaa !8
  %133 = icmp ne i32 %132, 0
  %134 = select i1 %133, ptr @.str.41, ptr @.str.42
  call void (i32, ptr, ...) @Abc_Print(i32 noundef -2, ptr noundef @.str.82, ptr noundef %134)
  %135 = load i32, ptr %14, align 4, !tbaa !8
  %136 = icmp ne i32 %135, 0
  %137 = select i1 %136, ptr @.str.41, ptr @.str.42
  call void (i32, ptr, ...) @Abc_Print(i32 noundef -2, ptr noundef @.str.45, ptr noundef %137)
  call void (i32, ptr, ...) @Abc_Print(i32 noundef -2, ptr noundef @.str.46)
  store i32 1, ptr %4, align 4
  store i32 1, ptr %16, align 4
  br label %138

138:                                              ; preds = %126, %119, %86, %77
  call void @llvm.lifetime.end.p0(i64 8, ptr %15) #12
  call void @llvm.lifetime.end.p0(i64 4, ptr %14) #12
  call void @llvm.lifetime.end.p0(i64 4, ptr %13) #12
  call void @llvm.lifetime.end.p0(i64 4, ptr %12) #12
  call void @llvm.lifetime.end.p0(i64 4, ptr %11) #12
  call void @llvm.lifetime.end.p0(i64 4, ptr %10) #12
  call void @llvm.lifetime.end.p0(i64 4, ptr %9) #12
  call void @llvm.lifetime.end.p0(i64 8, ptr %8) #12
  %139 = load i32, ptr %4, align 4
  ret i32 %139
}