; Function Attrs: nounwind uwtable
define internal range(i32 0, 2) i32 @Abc_CommandCone(ptr noundef captures(none) %0, i32 noundef %1, ptr noundef %2) #0 {
  %4 = getelementptr i8, ptr %0, i64 504
  %.val = load ptr, ptr %4, align 8, !tbaa !27
  tail call void (...) @Extra_UtilGetoptReset() #17
  br label %.outer

.outer:                                           ; preds = %9, %3
  %.050.ph = phi i32 [ %14, %9 ], [ -1, %3 ]
  %.048.ph = phi i32 [ %.048.ph141, %9 ], [ 1, %3 ]
  %.046.ph = phi i32 [ %.046.ph146, %9 ], [ 0, %3 ]
  %.044.ph = phi i32 [ %.044.ph150, %9 ], [ 0, %3 ]
  %.043.ph = phi i32 [ %.043, %9 ], [ 0, %3 ]
  br label %.outer140

.outer140:                                        ; preds = %.outer, %19
  %.048.ph141 = phi i32 [ %.048.ph, %.outer ], [ %24, %19 ]
  %.046.ph142 = phi i32 [ %.046.ph, %.outer ], [ %.046.ph146, %19 ]
  %.044.ph143 = phi i32 [ %.044.ph, %.outer ], [ %.044.ph150, %19 ]
  %.043.ph144 = phi i32 [ %.043.ph, %.outer ], [ %.043, %19 ]
  br label %.outer145

.outer145:                                        ; preds = %.outer140, %27
  %.046.ph146 = phi i32 [ %.046.ph142, %.outer140 ], [ %28, %27 ]
  %.044.ph147 = phi i32 [ %.044.ph143, %.outer140 ], [ %.044.ph150, %27 ]
  %.043.ph148 = phi i32 [ %.043.ph144, %.outer140 ], [ %.043, %27 ]
  br label %.outer149

.outer149:                                        ; preds = %.outer145, %29
  %.044.ph150 = phi i32 [ %.044.ph147, %.outer145 ], [ %30, %29 ]
  %.043.ph151 = phi i32 [ %.043.ph148, %.outer145 ], [ %.043, %29 ]
  br label %5

5:                                                ; preds = %.outer149, %31
  %.043 = phi i32 [ %32, %31 ], [ %.043.ph151, %.outer149 ]
  %6 = tail call i32 @Extra_UtilGetopt(i32 noundef %1, ptr noundef %2, ptr noundef nonnull @.str.69) #17
  switch i32 %6, label %.loopexit [
    i32 -1, label %33
    i32 79, label %7
    i32 82, label %17
    i32 105, label %27
    i32 115, label %29
    i32 118, label %31
  ]

7:                                                ; preds = %5
  %8 = load i32, ptr @globalUtilOptind, align 4, !tbaa !5
  %.not66 = icmp slt i32 %8, %1
  br i1 %.not66, label %9, label %.loopexit.sink.split

9:                                                ; preds = %7
  %10 = sext i32 %8 to i64
  %11 = getelementptr inbounds ptr, ptr %2, i64 %10
  %12 = load ptr, ptr %11, align 8, !tbaa !9
  %13 = tail call i64 @strtol(ptr noundef nonnull captures(none) %12, ptr noundef null, i32 noundef 10) #17
  %14 = trunc i64 %13 to i32
  %15 = add nsw i32 %8, 1
  store i32 %15, ptr @globalUtilOptind, align 4, !tbaa !5
  %16 = icmp slt i32 %14, 0
  br i1 %16, label %.loopexit, label %.outer, !llvm.loop !36

17:                                               ; preds = %5
  %18 = load i32, ptr @globalUtilOptind, align 4, !tbaa !5
  %.not65 = icmp slt i32 %18, %1
  br i1 %.not65, label %19, label %.loopexit.sink.split

19:                                               ; preds = %17
  %20 = sext i32 %18 to i64
  %21 = getelementptr inbounds ptr, ptr %2, i64 %20
  %22 = load ptr, ptr %21, align 8, !tbaa !9
  %23 = tail call i64 @strtol(ptr noundef nonnull captures(none) %22, ptr noundef null, i32 noundef 10) #17
  %24 = trunc i64 %23 to i32
  %25 = add nsw i32 %18, 1
  store i32 %25, ptr @globalUtilOptind, align 4, !tbaa !5
  %26 = icmp slt i32 %24, 0
  br i1 %26, label %.loopexit, label %.outer140, !llvm.loop !36

27:                                               ; preds = %5
  %28 = xor i32 %.046.ph146, 1
  br label %.outer145, !llvm.loop !36

29:                                               ; preds = %5
  %30 = xor i32 %.044.ph150, 1
  br label %.outer149, !llvm.loop !36

31:                                               ; preds = %5
  %32 = xor i32 %.043, 1
  br label %5, !llvm.loop !36

33:                                               ; preds = %5
  %34 = icmp eq ptr %.val, null
  br i1 %34, label %35, label %36

35:                                               ; preds = %33
  tail call void (i32, ptr, ...) @Abc_Print(i32 noundef 1, ptr noundef nonnull @.str.72)
  br label %56

36:                                               ; preds = %33
  %37 = icmp sgt i32 %.050.ph, -1
  %.phi.trans.insert = getelementptr i8, ptr %.val, i64 68
  %.val71.pre = load i32, ptr %.phi.trans.insert, align 4, !tbaa !37
  %.not62 = icmp slt i32 %.050.ph, %.val71.pre
  %or.cond = select i1 %37, i1 %.not62, i1 false
  br i1 %or.cond, label %38, label %._crit_edge

._crit_edge:                                      ; preds = %36
  tail call void (i32, ptr, ...) @Abc_Print(i32 noundef 1, ptr noundef nonnull @.str.73, i32 noundef %.050.ph, i32 noundef %.val71.pre)
  br label %56

38:                                               ; preds = %36
  %.not63 = icmp eq i32 %.044.ph150, 0
  %39 = select i1 %.not63, ptr @.str.76, ptr @.str.75
  %40 = tail call i32 (ptr, ...) @printf(ptr noundef nonnull dereferenceable(1) @.str.74, i32 noundef %.050.ph, ptr noundef nonnull %39)
  %41 = tail call ptr @Wlc_NtkNewName(ptr noundef nonnull %.val, i32 noundef %.050.ph, i32 noundef %.044.ph150) #17
  tail call void @Wlc_NtkMarkCone(ptr noundef nonnull %.val, i32 noundef %.050.ph, i32 noundef %.048.ph141, i32 noundef %.044.ph150, i32 noundef %.046.ph146) #17
  %42 = tail call ptr @Wlc_NtkDupDfs(ptr noundef nonnull %.val, i32 noundef 1, i32 noundef %.044.ph150) #17
  %43 = load ptr, ptr %42, align 8, !tbaa !29
  %.not64 = icmp eq ptr %43, null
  br i1 %.not64, label %45, label %44

44:                                               ; preds = %38
  tail call void @free(ptr noundef nonnull %43) #17
  store ptr null, ptr %42, align 8, !tbaa !29
  br label %45

45:                                               ; preds = %38, %44
  %.not.i = icmp eq ptr %41, null
  br i1 %.not.i, label %Abc_UtilStrsav.exit, label %46

46:                                               ; preds = %45
  %47 = tail call i64 @strlen(ptr noundef nonnull readonly dereferenceable(1) %41) #18
  %48 = add i64 %47, 1
  %49 = tail call noalias ptr @malloc(i64 noundef %48) #19
  %50 = tail call ptr @strcpy(ptr noundef nonnull dereferenceable(1) %49, ptr noundef nonnull readonly dereferenceable(1) %41) #17
  br label %Abc_UtilStrsav.exit

Abc_UtilStrsav.exit:                              ; preds = %45, %46
  %51 = phi ptr [ %49, %46 ], [ null, %45 ]
  store ptr %51, ptr %42, align 8, !tbaa !29
  %.val.i = load ptr, ptr %4, align 8, !tbaa !27
  %.not.i.i = icmp eq ptr %.val.i, null
  br i1 %.not.i.i, label %Wlc_AbcUpdateNtk.exit, label %52

52:                                               ; preds = %Abc_UtilStrsav.exit
  tail call void @Wlc_NtkFree(ptr noundef nonnull %.val.i) #17
  br label %Wlc_AbcUpdateNtk.exit

Wlc_AbcUpdateNtk.exit:                            ; preds = %Abc_UtilStrsav.exit, %52
  store ptr %42, ptr %4, align 8, !tbaa !27
  br label %56

.loopexit.sink.split:                             ; preds = %7, %17
  %.str.71.sink = phi ptr [ @.str.71, %17 ], [ @.str.70, %7 ]
  tail call void (i32, ptr, ...) @Abc_Print(i32 noundef -1, ptr noundef nonnull %.str.71.sink)
  br label %.loopexit

.loopexit:                                        ; preds = %19, %5, %9, %.loopexit.sink.split
  %.151 = phi i32 [ %.050.ph, %.loopexit.sink.split ], [ %.050.ph, %19 ], [ %.050.ph, %5 ], [ %14, %9 ]
  %.149 = phi i32 [ %.048.ph141, %.loopexit.sink.split ], [ %.048.ph141, %5 ], [ %24, %19 ], [ %.048.ph141, %9 ]
  tail call void (i32, ptr, ...) @Abc_Print(i32 noundef -2, ptr noundef nonnull @.str.77)
  tail call void (i32, ptr, ...) @Abc_Print(i32 noundef -2, ptr noundef nonnull @.str.78)
  tail call void (i32, ptr, ...) @Abc_Print(i32 noundef -2, ptr noundef nonnull @.str.79, i32 noundef %.151)
  tail call void (i32, ptr, ...) @Abc_Print(i32 noundef -2, ptr noundef nonnull @.str.80, i32 noundef %.149)
  %.not67 = icmp eq i32 %.046.ph146, 0
  %53 = select i1 %.not67, ptr @.str.42, ptr @.str.41
  tail call void (i32, ptr, ...) @Abc_Print(i32 noundef -2, ptr noundef nonnull @.str.81, ptr noundef nonnull %53)
  %.not68 = icmp eq i32 %.044.ph150, 0
  %54 = select i1 %.not68, ptr @.str.42, ptr @.str.41
  tail call void (i32, ptr, ...) @Abc_Print(i32 noundef -2, ptr noundef nonnull @.str.82, ptr noundef nonnull %54)
  %.not69 = icmp eq i32 %.043, 0
  %55 = select i1 %.not69, ptr @.str.42, ptr @.str.41
  tail call void (i32, ptr, ...) @Abc_Print(i32 noundef -2, ptr noundef nonnull @.str.45, ptr noundef nonnull %55)
  tail call void (i32, ptr, ...) @Abc_Print(i32 noundef -2, ptr noundef nonnull @.str.46)
  br label %56

56:                                               ; preds = %.loopexit, %Wlc_AbcUpdateNtk.exit, %._crit_edge, %35
  %.0 = phi i32 [ 1, %.loopexit ], [ 0, %35 ], [ 0, %._crit_edge ], [ 0, %Wlc_AbcUpdateNtk.exit ]
  ret i32 %.0
}